; Function Attrs: nounwind uwtable
define dso_local void @IncrTupleDescRefCount(ptr noundef %0) local_unnamed_addr #0 {
  %2 = load ptr, ptr @CurrentResourceOwner, align 8
  tail call void @ResourceOwnerEnlarge(ptr noundef %2) #11
  %3 = getelementptr inbounds nuw i8, ptr %0, i64 12
  %4 = load i32, ptr %3, align 4
  %5 = add i32 %4, 1
  store i32 %5, ptr %3, align 4
  %6 = load ptr, ptr @CurrentResourceOwner, align 8
  %7 = ptrtoint ptr %0 to i64
  tail call void @ResourceOwnerRemember(ptr noundef %6, i64 noundef %7, ptr noundef nonnull @tupdesc_resowner_desc) #11
  ret void
}